target datalayout = "e-m:e-p270:32:32-p271:32:32-p272:64:64-i64:64-i128:128-f80:128-n8:16:32:64-S128"
target triple = "x86_64-pc-linux-gnu"

%struct.Lpk_Fun_t_ = type { ptr, i32, i32, [32 x i32], i32, [16 x i32], [16 x i8], [0 x i32] }

; Function Attrs: inlinehint nounwind uwtable
define internal i32 @Abc_MaxInt(i32 noundef %0, i32 noundef %1) #2 {
  %3 = alloca i32, align 4
  %4 = alloca i32, align 4
  store i32 %0, ptr %3, align 4, !tbaa !10
  store i32 %1, ptr %4, align 4, !tbaa !10
  %5 = load i32, ptr %3, align 4, !tbaa !10
  %6 = load i32, ptr %4, align 4, !tbaa !10
  %7 = icmp sgt i32 %5, %6
  br i1 %7, label %8, label %10

8:                                                ; preds = %2
  %9 = load i32, ptr %3, align 4, !tbaa !10
  br label %12

10:                                               ; preds = %2
  %11 = load i32, ptr %4, align 4, !tbaa !10
  br label %12

12:                                               ; preds = %10, %8
  %13 = phi i32 [ %9, %8 ], [ %11, %10 ]
  ret i32 %13
}

; Function Attrs: inlinehint nounwind uwtable
define internal i32 @Kit_WordCountOnes(i32 noundef %0) #2 {
  %2 = alloca i32, align 4
  store i32 %0, ptr %2, align 4, !tbaa !10
  %3 = load i32, ptr %2, align 4, !tbaa !10
  %4 = and i32 %3, 1431655765
  %5 = load i32, ptr %2, align 4, !tbaa !10
  %6 = lshr i32 %5, 1
  %7 = and i32 %6, 1431655765
  %8 = add i32 %4, %7
  store i32 %8, ptr %2, align 4, !tbaa !10
  %9 = load i32, ptr %2, align 4, !tbaa !10
  %10 = and i32 %9, 858993459
  %11 = load i32, ptr %2, align 4, !tbaa !10
  %12 = lshr i32 %11, 2
  %13 = and i32 %12, 858993459
  %14 = add i32 %10, %13
  store i32 %14, ptr %2, align 4, !tbaa !10
  %15 = load i32, ptr %2, align 4, !tbaa !10
  %16 = and i32 %15, 252645135
  %17 = load i32, ptr %2, align 4, !tbaa !10
  %18 = lshr i32 %17, 4
  %19 = and i32 %18, 252645135
  %20 = add i32 %16, %19
  store i32 %20, ptr %2, align 4, !tbaa !10
  %21 = load i32, ptr %2, align 4, !tbaa !10
  %22 = and i32 %21, 16711935
  %23 = load i32, ptr %2, align 4, !tbaa !10
  %24 = lshr i32 %23, 8
  %25 = and i32 %24, 16711935
  %26 = add i32 %22, %25
  store i32 %26, ptr %2, align 4, !tbaa !10
  %27 = load i32, ptr %2, align 4, !tbaa !10
  %28 = and i32 %27, 65535
  %29 = load i32, ptr %2, align 4, !tbaa !10
  %30 = lshr i32 %29, 16
  %31 = add i32 %28, %30
  ret i32 %31
}

; Function Attrs: nounwind uwtable
define i32 @Lpk_FunComputeMinSuppSizeVar(ptr noundef %0, ptr noundef %1, i32 noundef %2, ptr noundef %3, i32 noundef %4) #0 {
  %6 = alloca ptr, align 8
  %7 = alloca ptr, align 8
  %8 = alloca i32, align 4
  %9 = alloca ptr, align 8
  %10 = alloca i32, align 4
  %11 = alloca i32, align 4
  %12 = alloca i32, align 4
  %13 = alloca i32, align 4
  %14 = alloca i32, align 4
  %15 = alloca i32, align 4
  %16 = alloca i32, align 4
  %17 = alloca i32, align 4
  %18 = alloca i32, align 4
  %19 = alloca i32, align 4
  store ptr %0, ptr %6, align 8, !tbaa !3
  store ptr %1, ptr %7, align 8, !tbaa !8
  store i32 %2, ptr %8, align 4, !tbaa !10
  store ptr %3, ptr %9, align 8, !tbaa !8
  store i32 %4, ptr %10, align 4, !tbaa !10
  call void @llvm.lifetime.start.p0(i64 4, ptr %11) #8
  call void @llvm.lifetime.start.p0(i64 4, ptr %12) #8
  call void @llvm.lifetime.start.p0(i64 4, ptr %13) #8
  call void @llvm.lifetime.start.p0(i64 4, ptr %14) #8
  call void @llvm.lifetime.start.p0(i64 4, ptr %15) #8
  call void @llvm.lifetime.start.p0(i64 4, ptr %16) #8
  store i32 -1, ptr %16, align 4, !tbaa !10
  call void @llvm.lifetime.start.p0(i64 4, ptr %17) #8
  call void @llvm.lifetime.start.p0(i64 4, ptr %18) #8
  store i32 -1, ptr %18, align 4, !tbaa !10
  call void @llvm.lifetime.start.p0(i64 4, ptr %19) #8
  store i32 -1, ptr %13, align 4, !tbaa !10
  store i32 0, ptr %12, align 4, !tbaa !10
  br label %20

20:                                               ; preds = %165, %5
  %21 = load i32, ptr %12, align 4, !tbaa !10
  %22 = icmp slt i32 %21, 16
  br i1 %22, label %23, label %168

23:                                               ; preds = %20
  %24 = load ptr, ptr %6, align 8, !tbaa !3
  %25 = getelementptr inbounds nuw %struct.Lpk_Fun_t_, ptr %24, i32 0, i32 2
  %26 = load i32, ptr %25, align 4, !tbaa !12
  %27 = load i32, ptr %12, align 4, !tbaa !10
  %28 = shl i32 1, %27
  %29 = and i32 %26, %28
  %30 = icmp ne i32 %29, 0
  br i1 %30, label %32, label %31

31:                                               ; preds = %23
  br label %164

32:                                               ; preds = %23
  %33 = load i32, ptr %10, align 4, !tbaa !10
  %34 = load i32, ptr %12, align 4, !tbaa !10
  %35 = shl i32 1, %34
  %36 = and i32 %33, %35
  %37 = icmp eq i32 %36, 0
  br i1 %37, label %38, label %39

38:                                               ; preds = %32
  br label %165

39:                                               ; preds = %32
  store i32 0, ptr %19, align 4, !tbaa !10
  store i32 0, ptr %17, align 4, !tbaa !10
  store i32 0, ptr %11, align 4, !tbaa !10
  br label %40

40:                                               ; preds = %141, %39
  %41 = load i32, ptr %11, align 4, !tbaa !10
  %42 = load i32, ptr %8, align 4, !tbaa !10
  %43 = icmp slt i32 %41, %42
  br i1 %43, label %44, label %144

44:                                               ; preds = %40
  %45 = load i32, ptr %8, align 4, !tbaa !10
  %46 = icmp eq i32 %45, 1
  br i1 %46, label %47, label %66

47:                                               ; preds = %44
  %48 = load ptr, ptr %6, align 8, !tbaa !3
  %49 = getelementptr inbounds nuw %struct.Lpk_Fun_t_, ptr %48, i32 0, i32 3
  %50 = load i32, ptr %12, align 4, !tbaa !10
  %51 = mul nsw i32 2, %50
  %52 = add nsw i32 %51, 0
  %53 = sext i32 %52 to i64
  %54 = getelementptr inbounds [32 x i32], ptr %49, i64 0, i64 %53
  %55 = load i32, ptr %54, align 4, !tbaa !10
  %56 = call i32 @Kit_WordCountOnes(i32 noundef %55)
  store i32 %56, ptr %14, align 4, !tbaa !10
  %57 = load ptr, ptr %6, align 8, !tbaa !3
  %58 = getelementptr inbounds nuw %struct.Lpk_Fun_t_, ptr %57, i32 0, i32 3
  %59 = load i32, ptr %12, align 4, !tbaa !10
  %60 = mul nsw i32 2, %59
  %61 = add nsw i32 %60, 1
  %62 = sext i32 %61 to i64
  %63 = getelementptr inbounds [32 x i32], ptr %58, i64 0, i64 %62
  %64 = load i32, ptr %63, align 4, !tbaa !10
  %65 = call i32 @Kit_WordCountOnes(i32 noundef %64)
  store i32 %65, ptr %15, align 4, !tbaa !10
  br label %129

66:                                               ; preds = %44
  %67 = load ptr, ptr %9, align 8, !tbaa !8
  %68 = load i32, ptr %11, align 4, !tbaa !10
  %69 = mul nsw i32 2, %68
  %70 = add nsw i32 %69, 0
  %71 = sext i32 %70 to i64
  %72 = getelementptr inbounds ptr, ptr %67, i64 %71
  %73 = load ptr, ptr %72, align 8, !tbaa !15
  %74 = load ptr, ptr %7, align 8, !tbaa !8
  %75 = load i32, ptr %11, align 4, !tbaa !10
  %76 = sext i32 %75 to i64
  %77 = getelementptr inbounds ptr, ptr %74, i64 %76
  %78 = load ptr, ptr %77, align 8, !tbaa !15
  %79 = load ptr, ptr %6, align 8, !tbaa !3
  %80 = getelementptr inbounds nuw %struct.Lpk_Fun_t_, ptr %79, i32 0, i32 1
  %81 = load i32, ptr %80, align 8
  %82 = lshr i32 %81, 7
  %83 = and i32 %82, 31
  %84 = load i32, ptr %12, align 4, !tbaa !10
  call void @Kit_TruthCofactor0New(ptr noundef %73, ptr noundef %78, i32 noundef %83, i32 noundef %84)
  %85 = load ptr, ptr %9, align 8, !tbaa !8
  %86 = load i32, ptr %11, align 4, !tbaa !10
  %87 = mul nsw i32 2, %86
  %88 = add nsw i32 %87, 1
  %89 = sext i32 %88 to i64
  %90 = getelementptr inbounds ptr, ptr %85, i64 %89
  %91 = load ptr, ptr %90, align 8, !tbaa !15
  %92 = load ptr, ptr %7, align 8, !tbaa !8
  %93 = load i32, ptr %11, align 4, !tbaa !10
  %94 = sext i32 %93 to i64
  %95 = getelementptr inbounds ptr, ptr %92, i64 %94
  %96 = load ptr, ptr %95, align 8, !tbaa !15
  %97 = load ptr, ptr %6, align 8, !tbaa !3
  %98 = getelementptr inbounds nuw %struct.Lpk_Fun_t_, ptr %97, i32 0, i32 1
  %99 = load i32, ptr %98, align 8
  %100 = lshr i32 %99, 7
  %101 = and i32 %100, 31
  %102 = load i32, ptr %12, align 4, !tbaa !10
  call void @Kit_TruthCofactor1New(ptr noundef %91, ptr noundef %96, i32 noundef %101, i32 noundef %102)
  %103 = load ptr, ptr %9, align 8, !tbaa !8
  %104 = load i32, ptr %11, align 4, !tbaa !10
  %105 = mul nsw i32 2, %104
  %106 = add nsw i32 %105, 0
  %107 = sext i32 %106 to i64
  %108 = getelementptr inbounds ptr, ptr %103, i64 %107
  %109 = load ptr, ptr %108, align 8, !tbaa !15
  %110 = load ptr, ptr %6, align 8, !tbaa !3
  %111 = getelementptr inbounds nuw %struct.Lpk_Fun_t_, ptr %110, i32 0, i32 1
  %112 = load i32, ptr %111, align 8
  %113 = lshr i32 %112, 7
  %114 = and i32 %113, 31
  %115 = call i32 @Kit_TruthSupportSize(ptr noundef %109, i32 noundef %114)
  store i32 %115, ptr %14, align 4, !tbaa !10
  %116 = load ptr, ptr %9, align 8, !tbaa !8
  %117 = load i32, ptr %11, align 4, !tbaa !10
  %118 = mul nsw i32 2, %117
  %119 = add nsw i32 %118, 1
  %120 = sext i32 %119 to i64
  %121 = getelementptr inbounds ptr, ptr %116, i64 %120
  %122 = load ptr, ptr %121, align 8, !tbaa !15
  %123 = load ptr, ptr %6, align 8, !tbaa !3
  %124 = getelementptr inbounds nuw %struct.Lpk_Fun_t_, ptr %123, i32 0, i32 1
  %125 = load i32, ptr %124, align 8
  %126 = lshr i32 %125, 7
  %127 = and i32 %126, 31
  %128 = call i32 @Kit_TruthSupportSize(ptr noundef %122, i32 noundef %127)
  store i32 %128, ptr %15, align 4, !tbaa !10
  br label %129

129:                                              ; preds = %66, %47
  %130 = load i32, ptr %19, align 4, !tbaa !10
  %131 = load i32, ptr %14, align 4, !tbaa !10
  %132 = call i32 @Abc_MaxInt(i32 noundef %130, i32 noundef %131)
  store i32 %132, ptr %19, align 4, !tbaa !10
  %133 = load i32, ptr %19, align 4, !tbaa !10
  %134 = load i32, ptr %15, align 4, !tbaa !10
  %135 = call i32 @Abc_MaxInt(i32 noundef %133, i32 noundef %134)
  store i32 %135, ptr %19, align 4, !tbaa !10
  %136 = load i32, ptr %14, align 4, !tbaa !10
  %137 = load i32, ptr %15, align 4, !tbaa !10
  %138 = add nsw i32 %136, %137
  %139 = load i32, ptr %17, align 4, !tbaa !10
  %140 = add nsw i32 %139, %138
  store i32 %140, ptr %17, align 4, !tbaa !10
  br label %141

141:                                              ; preds = %129
  %142 = load i32, ptr %11, align 4, !tbaa !10
  %143 = add nsw i32 %142, 1
  store i32 %143, ptr %11, align 4, !tbaa !10
  br label %40, !llvm.loop !17

144:                                              ; preds = %40
  %145 = load i32, ptr %13, align 4, !tbaa !10
  %146 = icmp eq i32 %145, -1
  br i1 %146, label %159, label %147

147:                                              ; preds = %144
  %148 = load i32, ptr %18, align 4, !tbaa !10
  %149 = load i32, ptr %19, align 4, !tbaa !10
  %150 = icmp sgt i32 %148, %149
  br i1 %150, label %159, label %151

151:                                              ; preds = %147
  %152 = load i32, ptr %18, align 4, !tbaa !10
  %153 = load i32, ptr %19, align 4, !tbaa !10
  %154 = icmp eq i32 %152, %153
  br i1 %154, label %155, label %163

155:                                              ; preds = %151
  %156 = load i32, ptr %16, align 4, !tbaa !10
  %157 = load i32, ptr %17, align 4, !tbaa !10
  %158 = icmp sgt i32 %156, %157
  br i1 %158, label %159, label %163

159:                                              ; preds = %155, %147, %144
  %160 = load i32, ptr %12, align 4, !tbaa !10
  store i32 %160, ptr %13, align 4, !tbaa !10
  %161 = load i32, ptr %19, align 4, !tbaa !10
  store i32 %161, ptr %18, align 4, !tbaa !10
  %162 = load i32, ptr %17, align 4, !tbaa !10
  store i32 %162, ptr %16, align 4, !tbaa !10
  br label %163

163:                                              ; preds = %159, %155, %151
  br label %164

164:                                              ; preds = %163, %31
  br label %165

165:                                              ; preds = %164, %38
  %166 = load i32, ptr %12, align 4, !tbaa !10
  %167 = add nsw i32 %166, 1
  store i32 %167, ptr %12, align 4, !tbaa !10
  br label %20, !llvm.loop !19

168:                                              ; preds = %20
  store i32 0, ptr %11, align 4, !tbaa !10
  br label %169

169:                                              ; preds = %210, %168
  %170 = load i32, ptr %11, align 4, !tbaa !10
  %171 = load i32, ptr %8, align 4, !tbaa !10
  %172 = icmp slt i32 %170, %171
  br i1 %172, label %173, label %213

173:                                              ; preds = %169
  %174 = load ptr, ptr %9, align 8, !tbaa !8
  %175 = load i32, ptr %11, align 4, !tbaa !10
  %176 = mul nsw i32 2, %175
  %177 = add nsw i32 %176, 0
  %178 = sext i32 %177 to i64
  %179 = getelementptr inbounds ptr, ptr %174, i64 %178
  %180 = load ptr, ptr %179, align 8, !tbaa !15
  %181 = load ptr, ptr %7, align 8, !tbaa !8
  %182 = load i32, ptr %11, align 4, !tbaa !10
  %183 = sext i32 %182 to i64
  %184 = getelementptr inbounds ptr, ptr %181, i64 %183
  %185 = load ptr, ptr %184, align 8, !tbaa !15
  %186 = load ptr, ptr %6, align 8, !tbaa !3
  %187 = getelementptr inbounds nuw %struct.Lpk_Fun_t_, ptr %186, i32 0, i32 1
  %188 = load i32, ptr %187, align 8
  %189 = lshr i32 %188, 7
  %190 = and i32 %189, 31
  %191 = load i32, ptr %13, align 4, !tbaa !10
  call void @Kit_TruthCofactor0New(ptr noundef %180, ptr noundef %185, i32 noundef %190, i32 noundef %191)
  %192 = load ptr, ptr %9, align 8, !tbaa !8
  %193 = load i32, ptr %11, align 4, !tbaa !10
  %194 = mul nsw i32 2, %193
  %195 = add nsw i32 %194, 1
  %196 = sext i32 %195 to i64
  %197 = getelementptr inbounds ptr, ptr %192, i64 %196
  %198 = load ptr, ptr %197, align 8, !tbaa !15
  %199 = load ptr, ptr %7, align 8, !tbaa !8
  %200 = load i32, ptr %11, align 4, !tbaa !10
  %201 = sext i32 %200 to i64
  %202 = getelementptr inbounds ptr, ptr %199, i64 %201
  %203 = load ptr, ptr %202, align 8, !tbaa !15
  %204 = load ptr, ptr %6, align 8, !tbaa !3
  %205 = getelementptr inbounds nuw %struct.Lpk_Fun_t_, ptr %204, i32 0, i32 1
  %206 = load i32, ptr %205, align 8
  %207 = lshr i32 %206, 7
  %208 = and i32 %207, 31
  %209 = load i32, ptr %13, align 4, !tbaa !10
  call void @Kit_TruthCofactor1New(ptr noundef %198, ptr noundef %203, i32 noundef %208, i32 noundef %209)
  br label %210

210:                                              ; preds = %173
  %211 = load i32, ptr %11, align 4, !tbaa !10
  %212 = add nsw i32 %211, 1
  store i32 %212, ptr %11, align 4, !tbaa !10
  br label %169, !llvm.loop !20

213:                                              ; preds = %169
  %214 = load i32, ptr %13, align 4, !tbaa !10
  call void @llvm.lifetime.end.p0(i64 4, ptr %19) #8
  call void @llvm.lifetime.end.p0(i64 4, ptr %18) #8
  call void @llvm.lifetime.end.p0(i64 4, ptr %17) #8
  call void @llvm.lifetime.end.p0(i64 4, ptr %16) #8
  call void @llvm.lifetime.end.p0(i64 4, ptr %15) #8
  call void @llvm.lifetime.end.p0(i64 4, ptr %14) #8
  call void @llvm.lifetime.end.p0(i64 4, ptr %13) #8
  call void @llvm.lifetime.end.p0(i64 4, ptr %12) #8
  call void @llvm.lifetime.end.p0(i64 4, ptr %11) #8
  ret i32 %214
}