; Function Attrs: nounwind uwtable
define i32 @Lpk_FunComputeMinSuppSizeVar(ptr noundef readonly captures(none) %0, ptr noundef readonly captures(none) %1, i32 noundef %2, ptr noundef readonly captures(none) %3, i32 noundef %4) local_unnamed_addr #0 {
  %6 = getelementptr inbounds nuw i8, ptr %0, i64 12
  %7 = icmp sgt i32 %2, 0
  %8 = getelementptr inbounds nuw i8, ptr %0, i64 8
  %9 = getelementptr inbounds nuw i8, ptr %0, i64 16
  br i1 %7, label %.split.us, label %.split

.split.us:                                        ; preds = %5
  %10 = icmp eq i32 %2, 1
  br i1 %10, label %.split.us.split.us, label %.split.us.split.preheader

.split.us.split.preheader:                        ; preds = %.split.us
  %wide.trip.count = zext nneg i32 %2 to i64
  br label %.split.us.split

.split.us.split.us:                               ; preds = %.split.us
  %11 = load i32, ptr %6, align 4, !tbaa !3
  br label %12

12:                                               ; preds = %22, %.split.us.split.us
  %indvars.iv105 = phi i64 [ %indvars.iv.next106, %22 ], [ 0, %.split.us.split.us ]
  %.06488.us.us = phi i32 [ %.1.us.us, %22 ], [ -1, %.split.us.split.us ]
  %.06687.us.us = phi i32 [ %.167.us.us, %22 ], [ -1, %.split.us.split.us ]
  %.07086.us.us = phi i32 [ %.171.us.us, %22 ], [ -1, %.split.us.split.us ]
  %13 = trunc nuw nsw i64 %indvars.iv105 to i32
  %14 = shl nuw nsw i32 1, %13
  %15 = and i32 %11, %14
  %.not.us.us = icmp eq i32 %15, 0
  %16 = and i32 %14, %4
  %17 = icmp eq i32 %16, 0
  %or.cond.us.us = or i1 %17, %.not.us.us
  br i1 %or.cond.us.us, label %22, label %.preheader79.us.us

18:                                               ; preds = %.preheader79.us.us
  %19 = icmp eq i32 %.06488.us.us, %67
  %20 = icmp sgt i32 %.06687.us.us, %invariant.op.us.us
  %or.cond78.us.us = select i1 %19, i1 %20, i1 false
  br i1 %or.cond78.us.us, label %21, label %22

21:                                               ; preds = %.preheader79.us.us, %18
  br label %22

22:                                               ; preds = %21, %18, %12
  %.171.us.us = phi i32 [ %13, %21 ], [ %.07086.us.us, %18 ], [ %.07086.us.us, %12 ]
  %.167.us.us = phi i32 [ %invariant.op.us.us, %21 ], [ %.06687.us.us, %18 ], [ %.06687.us.us, %12 ]
  %.1.us.us = phi i32 [ %67, %21 ], [ %.06488.us.us, %18 ], [ %.06488.us.us, %12 ]
  %indvars.iv.next106 = add nuw nsw i64 %indvars.iv105, 1
  %exitcond108.not = icmp eq i64 %indvars.iv.next106, 16
  br i1 %exitcond108.not, label %.preheader, label %12, !llvm.loop !10

.preheader79.us.us:                               ; preds = %12
  %23 = shl nuw nsw i64 %indvars.iv105, 1
  %24 = getelementptr inbounds nuw [32 x i32], ptr %9, i64 0, i64 %23
  %25 = or disjoint i64 %23, 1
  %26 = getelementptr inbounds nuw [32 x i32], ptr %9, i64 0, i64 %25
  %27 = load i32, ptr %24, align 4, !tbaa !12
  %28 = and i32 %27, 1431655765
  %29 = lshr i32 %27, 1
  %30 = and i32 %29, 1431655765
  %31 = add nuw i32 %30, %28
  %32 = and i32 %31, 858993459
  %33 = lshr i32 %31, 2
  %34 = and i32 %33, 858993459
  %35 = add nuw nsw i32 %34, %32
  %36 = and i32 %35, 117901063
  %37 = lshr i32 %35, 4
  %38 = and i32 %37, 117901063
  %39 = add nuw nsw i32 %38, %36
  %40 = and i32 %39, 983055
  %41 = lshr i32 %39, 8
  %42 = and i32 %41, 983055
  %43 = add nuw nsw i32 %42, %40
  %44 = and i32 %43, 31
  %45 = lshr i32 %43, 16
  %46 = add nuw nsw i32 %44, %45
  %47 = load i32, ptr %26, align 4, !tbaa !12
  %48 = and i32 %47, 1431655765
  %49 = lshr i32 %47, 1
  %50 = and i32 %49, 1431655765
  %51 = add nuw i32 %50, %48
  %52 = and i32 %51, 858993459
  %53 = lshr i32 %51, 2
  %54 = and i32 %53, 858993459
  %55 = add nuw nsw i32 %54, %52
  %56 = and i32 %55, 117901063
  %57 = lshr i32 %55, 4
  %58 = and i32 %57, 117901063
  %59 = add nuw nsw i32 %58, %56
  %60 = and i32 %59, 983055
  %61 = lshr i32 %59, 8
  %62 = and i32 %61, 983055
  %63 = add nuw nsw i32 %62, %60
  %64 = and i32 %63, 31
  %65 = lshr i32 %63, 16
  %66 = add nuw nsw i32 %64, %65
  %invariant.op.us.us = add nuw nsw i32 %46, %66
  %67 = tail call i32 @llvm.umax.i32(i32 %46, i32 %66)
  %68 = icmp eq i32 %.07086.us.us, -1
  %69 = icmp sgt i32 %.06488.us.us, %67
  %or.cond77.us.us = select i1 %68, i1 true, i1 %69
  br i1 %or.cond77.us.us, label %21, label %18

.split.us.split:                                  ; preds = %.split.us.split.preheader, %108
  %.06488.us = phi i32 [ %.1.us, %108 ], [ -1, %.split.us.split.preheader ]
  %.06687.us = phi i32 [ %.167.us, %108 ], [ -1, %.split.us.split.preheader ]
  %.07086.us = phi i32 [ %.171.us, %108 ], [ -1, %.split.us.split.preheader ]
  %.07285.us = phi i32 [ %109, %108 ], [ 0, %.split.us.split.preheader ]
  %70 = load i32, ptr %6, align 4, !tbaa !3
  %71 = shl nuw nsw i32 1, %.07285.us
  %72 = and i32 %70, %71
  %.not.us = icmp eq i32 %72, 0
  %73 = and i32 %71, %4
  %74 = icmp eq i32 %73, 0
  %or.cond.us = or i1 %74, %.not.us
  br i1 %or.cond.us, label %108, label %.preheader79.us

75:                                               ; preds = %._crit_edge.split.us92
  %76 = icmp eq i32 %.06488.us, %105
  %77 = icmp sgt i32 %.06687.us, %107
  %or.cond78.us = select i1 %76, i1 %77, i1 false
  br i1 %or.cond78.us, label %78, label %108

78:                                               ; preds = %75, %._crit_edge.split.us92
  br label %108

.preheader79.us:                                  ; preds = %.split.us.split, %.preheader79.us
  %indvars.iv = phi i64 [ %indvars.iv.next, %.preheader79.us ], [ 0, %.split.us.split ]
  %.082.us89 = phi i32 [ %105, %.preheader79.us ], [ 0, %.split.us.split ]
  %.06581.us90 = phi i32 [ %107, %.preheader79.us ], [ 0, %.split.us.split ]
  %79 = shl nuw nsw i64 %indvars.iv, 1
  %80 = getelementptr inbounds nuw ptr, ptr %3, i64 %79
  %81 = load ptr, ptr %80, align 8, !tbaa !13
  %82 = getelementptr inbounds nuw ptr, ptr %1, i64 %indvars.iv
  %83 = load ptr, ptr %82, align 8, !tbaa !13
  %84 = load i32, ptr %8, align 8
  %85 = lshr i32 %84, 7
  %86 = and i32 %85, 31
  tail call void @Kit_TruthCofactor0New(ptr noundef %81, ptr noundef %83, i32 noundef %86, i32 noundef %.07285.us) #10
  %87 = or disjoint i64 %79, 1
  %88 = getelementptr inbounds nuw ptr, ptr %3, i64 %87
  %89 = load ptr, ptr %88, align 8, !tbaa !13
  %90 = load ptr, ptr %82, align 8, !tbaa !13
  %91 = load i32, ptr %8, align 8
  %92 = lshr i32 %91, 7
  %93 = and i32 %92, 31
  tail call void @Kit_TruthCofactor1New(ptr noundef %89, ptr noundef %90, i32 noundef %93, i32 noundef %.07285.us) #10
  %94 = load ptr, ptr %80, align 8, !tbaa !13
  %95 = load i32, ptr %8, align 8
  %96 = lshr i32 %95, 7
  %97 = and i32 %96, 31
  %98 = tail call i32 @Kit_TruthSupportSize(ptr noundef %94, i32 noundef %97) #10
  %99 = load ptr, ptr %88, align 8, !tbaa !13
  %100 = load i32, ptr %8, align 8
  %101 = lshr i32 %100, 7
  %102 = and i32 %101, 31
  %103 = tail call i32 @Kit_TruthSupportSize(ptr noundef %99, i32 noundef %102) #10
  %104 = tail call noundef i32 @llvm.smax.i32(i32 %.082.us89, i32 %98)
  %105 = tail call noundef i32 @llvm.smax.i32(i32 %104, i32 %103)
  %106 = add i32 %98, %.06581.us90
  %107 = add i32 %106, %103
  %indvars.iv.next = add nuw nsw i64 %indvars.iv, 1
  %exitcond103.not = icmp eq i64 %indvars.iv.next, %wide.trip.count
  br i1 %exitcond103.not, label %._crit_edge.split.us92, label %.preheader79.us, !llvm.loop !15

108:                                              ; preds = %78, %75, %.split.us.split
  %.171.us = phi i32 [ %.07285.us, %78 ], [ %.07086.us, %75 ], [ %.07086.us, %.split.us.split ]
  %.167.us = phi i32 [ %107, %78 ], [ %.06687.us, %75 ], [ %.06687.us, %.split.us.split ]
  %.1.us = phi i32 [ %105, %78 ], [ %.06488.us, %75 ], [ %.06488.us, %.split.us.split ]
  %109 = add nuw nsw i32 %.07285.us, 1
  %exitcond104.not = icmp eq i32 %109, 16
  br i1 %exitcond104.not, label %.preheader, label %.split.us.split, !llvm.loop !10

._crit_edge.split.us92:                           ; preds = %.preheader79.us
  %110 = icmp eq i32 %.07086.us, -1
  %111 = icmp sgt i32 %.06488.us, %105
  %or.cond77.us = select i1 %110, i1 true, i1 %111
  br i1 %or.cond77.us, label %78, label %75

.split:                                           ; preds = %5
  %112 = load i32, ptr %6, align 4, !tbaa !3
  br label %113

.preheader:                                       ; preds = %113, %108, %22
  %.us-phi96 = phi i32 [ %.171.us.us, %22 ], [ %.171.us, %108 ], [ %.171, %113 ]
  br i1 %7, label %.lr.ph, label %._crit_edge

.lr.ph:                                           ; preds = %.preheader
  %wide.trip.count112 = zext nneg i32 %2 to i64
  br label %120

113:                                              ; preds = %.split, %113
  %.07086 = phi i32 [ -1, %.split ], [ %.171, %113 ]
  %.07285 = phi i32 [ 0, %.split ], [ %119, %113 ]
  %114 = shl nuw nsw i32 1, %.07285
  %115 = and i32 %112, %114
  %.not = icmp ne i32 %115, 0
  %116 = and i32 %114, %4
  %117 = icmp ne i32 %116, 0
  %or.cond.not119 = and i1 %117, %.not
  %118 = icmp eq i32 %.07086, -1
  %or.cond117 = select i1 %or.cond.not119, i1 %118, i1 false
  %.171 = select i1 %or.cond117, i32 %.07285, i32 %.07086
  %119 = add nuw nsw i32 %.07285, 1
  %exitcond.not = icmp eq i32 %119, 16
  br i1 %exitcond.not, label %.preheader, label %113, !llvm.loop !10

120:                                              ; preds = %.lr.ph, %120
  %indvars.iv109 = phi i64 [ 0, %.lr.ph ], [ %indvars.iv.next110, %120 ]
  %121 = shl nuw nsw i64 %indvars.iv109, 1
  %122 = getelementptr inbounds nuw ptr, ptr %3, i64 %121
  %123 = load ptr, ptr %122, align 8, !tbaa !13
  %124 = getelementptr inbounds nuw ptr, ptr %1, i64 %indvars.iv109
  %125 = load ptr, ptr %124, align 8, !tbaa !13
  %126 = load i32, ptr %8, align 8
  %127 = lshr i32 %126, 7
  %128 = and i32 %127, 31
  tail call void @Kit_TruthCofactor0New(ptr noundef %123, ptr noundef %125, i32 noundef %128, i32 noundef %.us-phi96) #10
  %129 = or disjoint i64 %121, 1
  %130 = getelementptr inbounds nuw ptr, ptr %3, i64 %129
  %131 = load ptr, ptr %130, align 8, !tbaa !13
  %132 = load ptr, ptr %124, align 8, !tbaa !13
  %133 = load i32, ptr %8, align 8
  %134 = lshr i32 %133, 7
  %135 = and i32 %134, 31
  tail call void @Kit_TruthCofactor1New(ptr noundef %131, ptr noundef %132, i32 noundef %135, i32 noundef %.us-phi96) #10
  %indvars.iv.next110 = add nuw nsw i64 %indvars.iv109, 1
  %exitcond113.not = icmp eq i64 %indvars.iv.next110, %wide.trip.count112
  br i1 %exitcond113.not, label %._crit_edge, label %120, !llvm.loop !16

._crit_edge:                                      ; preds = %120, %.preheader
  ret i32 %.us-phi96
}